target datalayout = "e-m:e-p270:32:32-p271:32:32-p272:64:64-i64:64-i128:128-f80:128-n8:16:32:64-S128"
target triple = "x86_64-pc-linux-gnu"

@numvars = internal global i32 0, align 4
@popsize = internal global i32 0, align 4
@storedd = internal global ptr null, align 8

; Function Attrs: nounwind uwtable
define internal i32 @find_best() #0 {
  %1 = alloca i32, align 4
  %2 = alloca i32, align 4
  call void @llvm.lifetime.start.p0(i64 4, ptr %1) #5
  call void @llvm.lifetime.start.p0(i64 4, ptr %2) #5
  store i32 0, ptr %2, align 4, !tbaa !8
  store i32 1, ptr %1, align 4, !tbaa !8
  br label %3

3:                                                ; preds = %32, %0
  %4 = load i32, ptr %1, align 4, !tbaa !8
  %5 = load i32, ptr @popsize, align 4, !tbaa !8
  %6 = icmp slt i32 %4, %5
  br i1 %6, label %7, label %35

7:                                                ; preds = %3
  %8 = load ptr, ptr @storedd, align 8, !tbaa !27
  %9 = load i32, ptr %1, align 4, !tbaa !8
  %10 = load i32, ptr @numvars, align 4, !tbaa !8
  %11 = add nsw i32 %10, 1
  %12 = mul nsw i32 %9, %11
  %13 = load i32, ptr @numvars, align 4, !tbaa !8
  %14 = add nsw i32 %12, %13
  %15 = sext i32 %14 to i64
  %16 = getelementptr inbounds i32, ptr %8, i64 %15
  %17 = load i32, ptr %16, align 4, !tbaa !8
  %18 = load ptr, ptr @storedd, align 8, !tbaa !27
  %19 = load i32, ptr %2, align 4, !tbaa !8
  %20 = load i32, ptr @numvars, align 4, !tbaa !8
  %21 = add nsw i32 %20, 1
  %22 = mul nsw i32 %19, %21
  %23 = load i32, ptr @numvars, align 4, !tbaa !8
  %24 = add nsw i32 %22, %23
  %25 = sext i32 %24 to i64
  %26 = getelementptr inbounds i32, ptr %18, i64 %25
  %27 = load i32, ptr %26, align 4, !tbaa !8
  %28 = icmp slt i32 %17, %27
  br i1 %28, label %29, label %31

29:                                               ; preds = %7
  %30 = load i32, ptr %1, align 4, !tbaa !8
  store i32 %30, ptr %2, align 4, !tbaa !8
  br label %31

31:                                               ; preds = %29, %7
  br label %32

32:                                               ; preds = %31
  %33 = load i32, ptr %1, align 4, !tbaa !8
  %34 = add nsw i32 %33, 1
  store i32 %34, ptr %1, align 4, !tbaa !8
  br label %3, !llvm.loop !54

35:                                               ; preds = %3
  %36 = load i32, ptr %2, align 4, !tbaa !8
  call void @llvm.lifetime.end.p0(i64 4, ptr %2) #5
  call void @llvm.lifetime.end.p0(i64 4, ptr %1) #5
  ret i32 %36
}