; Function Attrs: nofree norecurse nosync nounwind memory(read, inaccessiblemem: none) uwtable
define internal fastcc i32 @find_best() unnamed_addr #5 {
  %1 = load i32, ptr @popsize, align 4, !tbaa !3
  %2 = icmp sgt i32 %1, 1
  br i1 %2, label %.lr.ph, label %._crit_edge

.lr.ph:                                           ; preds = %0
  %3 = load ptr, ptr @storedd, align 8, !tbaa !25
  %4 = load i32, ptr @numvars, align 4, !tbaa !3
  %5 = add nsw i32 %4, 1
  %6 = sext i32 %5 to i64
  %7 = sext i32 %4 to i64
  %wide.trip.count = zext nneg i32 %1 to i64
  %invariant.gep = getelementptr i32, ptr %3, i64 %7
  br label %8

8:                                                ; preds = %.lr.ph, %8
  %indvars.iv = phi i64 [ 1, %.lr.ph ], [ %indvars.iv.next, %8 ]
  %.08 = phi i32 [ 0, %.lr.ph ], [ %spec.select, %8 ]
  %9 = mul nsw i64 %indvars.iv, %6
  %gep = getelementptr i32, ptr %invariant.gep, i64 %9
  %10 = load i32, ptr %gep, align 4, !tbaa !3
  %11 = mul nsw i32 %5, %.08
  %12 = add nsw i32 %11, %4
  %13 = sext i32 %12 to i64
  %14 = getelementptr inbounds i32, ptr %3, i64 %13
  %15 = load i32, ptr %14, align 4, !tbaa !3
  %16 = icmp slt i32 %10, %15
  %17 = trunc nuw nsw i64 %indvars.iv to i32
  %spec.select = select i1 %16, i32 %17, i32 %.08
  %indvars.iv.next = add nuw nsw i64 %indvars.iv, 1
  %exitcond.not = icmp eq i64 %indvars.iv.next, %wide.trip.count
  br i1 %exitcond.not, label %._crit_edge, label %8, !llvm.loop !62

._crit_edge:                                      ; preds = %8, %0
  %.0.lcssa = phi i32 [ 0, %0 ], [ %spec.select, %8 ]
  ret i32 %.0.lcssa
}